; Function Attrs: nofree norecurse nosync nounwind memory(read, argmem: readwrite, inaccessiblemem: none) uwtable
define internal fastcc void @dequant_lsp16i(ptr noundef captures(none) %0, ptr noundef nonnull captures(none) initializes((0, 40)) %1) unnamed_addr #9 {
  %3 = alloca [5 x i16], align 2
  call void @llvm.lifetime.start.p0(i64 10, ptr nonnull %3) #12
  %4 = getelementptr inbounds nuw i8, ptr %0, i64 16
  %5 = load i32, ptr %4, align 8, !tbaa !53
  %6 = getelementptr inbounds nuw i8, ptr %0, i64 24
  %7 = load i32, ptr %6, align 8, !tbaa !51
  %8 = load ptr, ptr %0, align 8, !tbaa !49
  %9 = lshr i32 %5, 3
  %10 = zext nneg i32 %9 to i64
  %11 = getelementptr inbounds nuw i8, ptr %8, i64 %10
  %12 = load i32, ptr %11, align 1, !tbaa !30
  %13 = tail call i32 @llvm.bswap.i32(i32 %12)
  %14 = and i32 %5, 7
  %15 = shl i32 %13, %14
  %16 = lshr i32 %15, 24
  %17 = add i32 %5, 8
  %18 = tail call i32 @llvm.umin.i32(i32 %7, i32 %17)
  store i32 %18, ptr %4, align 8, !tbaa !53
  %19 = trunc nuw nsw i32 %16 to i16
  store i16 %19, ptr %3, align 2, !tbaa !61
  %20 = lshr i32 %18, 3
  %21 = zext nneg i32 %20 to i64
  %22 = getelementptr inbounds nuw i8, ptr %8, i64 %21
  %23 = load i32, ptr %22, align 1, !tbaa !30
  %24 = tail call i32 @llvm.bswap.i32(i32 %23)
  %25 = and i32 %18, 7
  %26 = shl i32 %24, %25
  %27 = lshr i32 %26, 26
  %28 = add i32 %18, 6
  %29 = tail call i32 @llvm.umin.i32(i32 %7, i32 %28)
  store i32 %29, ptr %4, align 8, !tbaa !53
  %30 = trunc nuw nsw i32 %27 to i16
  %31 = getelementptr inbounds nuw i8, ptr %3, i64 2
  store i16 %30, ptr %31, align 2, !tbaa !61
  %32 = lshr i32 %29, 3
  %33 = zext nneg i32 %32 to i64
  %34 = getelementptr inbounds nuw i8, ptr %8, i64 %33
  %35 = load i32, ptr %34, align 1, !tbaa !30
  %36 = tail call i32 @llvm.bswap.i32(i32 %35)
  %37 = and i32 %29, 7
  %38 = shl i32 %36, %37
  %39 = lshr i32 %38, 25
  %40 = add i32 %29, 7
  %41 = tail call i32 @llvm.umin.i32(i32 %7, i32 %40)
  store i32 %41, ptr %4, align 8, !tbaa !53
  %42 = trunc nuw nsw i32 %39 to i16
  %43 = getelementptr inbounds nuw i8, ptr %3, i64 4
  store i16 %42, ptr %43, align 2, !tbaa !61
  %44 = lshr i32 %41, 3
  %45 = zext nneg i32 %44 to i64
  %46 = getelementptr inbounds nuw i8, ptr %8, i64 %45
  %47 = load i32, ptr %46, align 1, !tbaa !30
  %48 = tail call i32 @llvm.bswap.i32(i32 %47)
  %49 = and i32 %41, 7
  %50 = shl i32 %48, %49
  %51 = lshr i32 %50, 26
  %52 = add i32 %41, 6
  %53 = tail call i32 @llvm.umin.i32(i32 %7, i32 %52)
  store i32 %53, ptr %4, align 8, !tbaa !53
  %54 = trunc nuw nsw i32 %51 to i16
  %55 = getelementptr inbounds nuw i8, ptr %3, i64 6
  store i16 %54, ptr %55, align 2, !tbaa !61
  %56 = lshr i32 %53, 3
  %57 = zext nneg i32 %56 to i64
  %58 = getelementptr inbounds nuw i8, ptr %8, i64 %57
  %59 = load i32, ptr %58, align 1, !tbaa !30
  %60 = tail call i32 @llvm.bswap.i32(i32 %59)
  %61 = and i32 %53, 7
  %62 = shl i32 %60, %61
  %63 = lshr i32 %62, 25
  %64 = add i32 %53, 7
  %65 = tail call i32 @llvm.umin.i32(i32 %7, i32 %64)
  store i32 %65, ptr %4, align 8, !tbaa !53
  %66 = trunc nuw nsw i32 %63 to i16
  %67 = getelementptr inbounds nuw i8, ptr %3, i64 8
  store i16 %66, ptr %67, align 2, !tbaa !61
  tail call void @llvm.memset.p0.i64(ptr noundef nonnull align 8 dereferenceable(40) %1, i8 0, i64 40, i1 false)
  br label %68

68:                                               ; preds = %86, %2
  %indvars.iv32.i = phi i64 [ 0, %2 ], [ %indvars.iv.next33.i, %86 ]
  %.030.i = phi ptr [ @wmavoice_dq_lsp16i1, %2 ], [ %91, %86 ]
  %69 = getelementptr inbounds nuw i16, ptr %3, i64 %indvars.iv32.i
  %70 = load i16, ptr %69, align 2, !tbaa !61
  %71 = zext i16 %70 to i64
  %72 = mul nuw nsw i64 %71, 5
  %73 = getelementptr inbounds nuw i8, ptr %.030.i, i64 %72
  %74 = getelementptr inbounds nuw double, ptr @dequant_lsp16i.base_lsf, i64 %indvars.iv32.i
  %75 = load double, ptr %74, align 8, !tbaa !46
  %76 = getelementptr inbounds nuw double, ptr @dequant_lsp16i.mul_lsf, i64 %indvars.iv32.i
  %77 = load double, ptr %76, align 8, !tbaa !46
  br label %78

78:                                               ; preds = %78, %68
  %indvars.iv.i = phi i64 [ 0, %68 ], [ %indvars.iv.next.i, %78 ]
  %79 = getelementptr inbounds nuw i8, ptr %73, i64 %indvars.iv.i
  %80 = load i8, ptr %79, align 1, !tbaa !30
  %81 = uitofp i8 %80 to double
  %82 = tail call nsz double @llvm.fmuladd.f64(double %77, double %81, double %75)
  %83 = getelementptr inbounds nuw double, ptr %1, i64 %indvars.iv.i
  %84 = load double, ptr %83, align 8, !tbaa !46
  %85 = fadd nsz double %84, %82
  store double %85, ptr %83, align 8, !tbaa !46
  %indvars.iv.next.i = add nuw nsw i64 %indvars.iv.i, 1
  %exitcond.not.i = icmp eq i64 %indvars.iv.next.i, 5
  br i1 %exitcond.not.i, label %86, label %78, !llvm.loop !91

86:                                               ; preds = %78
  %87 = getelementptr inbounds nuw i16, ptr @dequant_lsp16i.vec_sizes, i64 %indvars.iv32.i
  %88 = load i16, ptr %87, align 2, !tbaa !61
  %89 = zext i16 %88 to i64
  %90 = mul nuw nsw i64 %89, 5
  %91 = getelementptr inbounds nuw i8, ptr %.030.i, i64 %90
  %indvars.iv.next33.i = add nuw nsw i64 %indvars.iv32.i, 1
  %exitcond36.not.i = icmp eq i64 %indvars.iv.next33.i, 2
  br i1 %exitcond36.not.i, label %dequant_lsps.exit, label %68, !llvm.loop !92

dequant_lsps.exit:                                ; preds = %86
  %92 = getelementptr inbounds nuw i8, ptr %1, i64 40
  tail call void @llvm.memset.p0.i64(ptr noundef nonnull align 8 dereferenceable(40) %92, i8 0, i64 40, i1 false)
  br label %93

93:                                               ; preds = %111, %dequant_lsps.exit
  %indvars.iv32.i8 = phi i64 [ 0, %dequant_lsps.exit ], [ %indvars.iv.next33.i13, %111 ]
  %.030.i9 = phi ptr [ @wmavoice_dq_lsp16i2, %dequant_lsps.exit ], [ %116, %111 ]
  %94 = getelementptr inbounds nuw i16, ptr %43, i64 %indvars.iv32.i8
  %95 = load i16, ptr %94, align 2, !tbaa !61
  %96 = zext i16 %95 to i64
  %97 = mul nuw nsw i64 %96, 5
  %98 = getelementptr inbounds nuw i8, ptr %.030.i9, i64 %97
  %99 = getelementptr inbounds nuw double, ptr getelementptr inbounds nuw (i8, ptr @dequant_lsp16i.base_lsf, i64 16), i64 %indvars.iv32.i8
  %100 = load double, ptr %99, align 8, !tbaa !46
  %101 = getelementptr inbounds nuw double, ptr getelementptr inbounds nuw (i8, ptr @dequant_lsp16i.mul_lsf, i64 16), i64 %indvars.iv32.i8
  %102 = load double, ptr %101, align 8, !tbaa !46
  br label %103

103:                                              ; preds = %103, %93
  %indvars.iv.i10 = phi i64 [ 0, %93 ], [ %indvars.iv.next.i11, %103 ]
  %104 = getelementptr inbounds nuw i8, ptr %98, i64 %indvars.iv.i10
  %105 = load i8, ptr %104, align 1, !tbaa !30
  %106 = uitofp i8 %105 to double
  %107 = tail call nsz double @llvm.fmuladd.f64(double %102, double %106, double %100)
  %108 = getelementptr inbounds nuw double, ptr %92, i64 %indvars.iv.i10
  %109 = load double, ptr %108, align 8, !tbaa !46
  %110 = fadd nsz double %109, %107
  store double %110, ptr %108, align 8, !tbaa !46
  %indvars.iv.next.i11 = add nuw nsw i64 %indvars.iv.i10, 1
  %exitcond.not.i12 = icmp eq i64 %indvars.iv.next.i11, 5
  br i1 %exitcond.not.i12, label %111, label %103, !llvm.loop !91

111:                                              ; preds = %103
  %112 = getelementptr inbounds nuw i16, ptr getelementptr inbounds nuw (i8, ptr @dequant_lsp16i.vec_sizes, i64 4), i64 %indvars.iv32.i8
  %113 = load i16, ptr %112, align 2, !tbaa !61
  %114 = zext i16 %113 to i64
  %115 = mul nuw nsw i64 %114, 5
  %116 = getelementptr inbounds nuw i8, ptr %.030.i9, i64 %115
  %indvars.iv.next33.i13 = add nuw nsw i64 %indvars.iv32.i8, 1
  %exitcond36.not.i14 = icmp eq i64 %indvars.iv.next33.i13, 2
  br i1 %exitcond36.not.i14, label %dequant_lsps.exit15, label %93, !llvm.loop !92

dequant_lsps.exit15:                              ; preds = %111
  %117 = getelementptr inbounds nuw i8, ptr %1, i64 80
  tail call void @llvm.memset.p0.i64(ptr noundef nonnull align 8 dereferenceable(48) %117, i8 0, i64 48, i1 false)
  %narrow = mul nuw nsw i32 %63, 6
  %118 = zext nneg i32 %narrow to i64
  %119 = getelementptr inbounds nuw i8, ptr @wmavoice_dq_lsp16i3, i64 %118
  br label %120

120:                                              ; preds = %120, %dequant_lsps.exit15
  %indvars.iv.i18 = phi i64 [ 0, %dequant_lsps.exit15 ], [ %indvars.iv.next.i19, %120 ]
  %121 = getelementptr inbounds nuw i8, ptr %119, i64 %indvars.iv.i18
  %122 = load i8, ptr %121, align 1, !tbaa !30
  %123 = uitofp i8 %122 to double
  %124 = tail call nsz double @llvm.fmuladd.f64(double %123, double 0x3F6A21BA1EEF5A47, double 0xBFDA19DEC5A99D5F)
  %125 = getelementptr inbounds nuw double, ptr %117, i64 %indvars.iv.i18
  %126 = load double, ptr %125, align 8, !tbaa !46
  %127 = fadd nsz double %126, %124
  store double %127, ptr %125, align 8, !tbaa !46
  %indvars.iv.next.i19 = add nuw nsw i64 %indvars.iv.i18, 1
  %exitcond.not.i20 = icmp eq i64 %indvars.iv.next.i19, 6
  br i1 %exitcond.not.i20, label %dequant_lsps.exit23, label %120, !llvm.loop !91

dequant_lsps.exit23:                              ; preds = %120
  call void @llvm.lifetime.end.p0(i64 10, ptr nonnull %3) #12
  ret void
}